target datalayout = "e-m:e-p270:32:32-p271:32:32-p272:64:64-i64:64-i128:128-f80:128-n8:16:32:64-S128"
target triple = "x86_64-pc-linux-gnu"

; Function Attrs: nounwind uwtable
define dso_local ptr @execTuplesMatchPrepare(ptr noundef %0, i32 noundef %1, ptr noundef %2, ptr noundef %3, ptr noundef %4, ptr noundef %5) #0 {
  %7 = alloca ptr, align 8
  %8 = alloca ptr, align 8
  %9 = alloca i32, align 4
  %10 = alloca ptr, align 8
  %11 = alloca ptr, align 8
  %12 = alloca ptr, align 8
  %13 = alloca ptr, align 8
  %14 = alloca ptr, align 8
  %15 = alloca i32, align 4
  %16 = alloca ptr, align 8
  %17 = alloca i32, align 4
  store ptr %0, ptr %8, align 8
  store i32 %1, ptr %9, align 4
  store ptr %2, ptr %10, align 8
  store ptr %3, ptr %11, align 8
  store ptr %4, ptr %12, align 8
  store ptr %5, ptr %13, align 8
  call void @llvm.lifetime.start.p0(i64 8, ptr %14) #9
  call void @llvm.lifetime.start.p0(i64 4, ptr %15) #9
  call void @llvm.lifetime.start.p0(i64 8, ptr %16) #9
  %18 = load i32, ptr %9, align 4
  %19 = icmp eq i32 %18, 0
  br i1 %19, label %20, label %21

20:                                               ; preds = %6
  store ptr null, ptr %7, align 8
  store i32 1, ptr %17, align 4
  br label %54

21:                                               ; preds = %6
  %22 = load i32, ptr %9, align 4
  %23 = sext i32 %22 to i64
  %24 = mul i64 %23, 4
  %25 = call ptr @palloc(i64 noundef %24)
  store ptr %25, ptr %14, align 8
  store i32 0, ptr %15, align 4
  br label %26

26:                                               ; preds = %41, %21
  %27 = load i32, ptr %15, align 4
  %28 = load i32, ptr %9, align 4
  %29 = icmp slt i32 %27, %28
  br i1 %29, label %30, label %44

30:                                               ; preds = %26
  %31 = load ptr, ptr %11, align 8
  %32 = load i32, ptr %15, align 4
  %33 = sext i32 %32 to i64
  %34 = getelementptr inbounds i32, ptr %31, i64 %33
  %35 = load i32, ptr %34, align 4
  %36 = call i32 @get_opcode(i32 noundef %35)
  %37 = load ptr, ptr %14, align 8
  %38 = load i32, ptr %15, align 4
  %39 = sext i32 %38 to i64
  %40 = getelementptr inbounds i32, ptr %37, i64 %39
  store i32 %36, ptr %40, align 4
  br label %41

41:                                               ; preds = %30
  %42 = load i32, ptr %15, align 4
  %43 = add i32 %42, 1
  store i32 %43, ptr %15, align 4
  br label %26, !llvm.loop !14

44:                                               ; preds = %26
  %45 = load ptr, ptr %8, align 8
  %46 = load ptr, ptr %8, align 8
  %47 = load i32, ptr %9, align 4
  %48 = load ptr, ptr %10, align 8
  %49 = load ptr, ptr %14, align 8
  %50 = load ptr, ptr %12, align 8
  %51 = load ptr, ptr %13, align 8
  %52 = call ptr @ExecBuildGroupingEqual(ptr noundef %45, ptr noundef %46, ptr noundef null, ptr noundef null, i32 noundef %47, ptr noundef %48, ptr noundef %49, ptr noundef %50, ptr noundef %51)
  store ptr %52, ptr %16, align 8
  %53 = load ptr, ptr %16, align 8
  store ptr %53, ptr %7, align 8
  store i32 1, ptr %17, align 4
  br label %54

54:                                               ; preds = %44, %20
  call void @llvm.lifetime.end.p0(i64 8, ptr %16) #9
  call void @llvm.lifetime.end.p0(i64 4, ptr %15) #9
  call void @llvm.lifetime.end.p0(i64 8, ptr %14) #9
  %55 = load ptr, ptr %7, align 8
  ret ptr %55
}