; Function Attrs: nounwind uwtable
define dso_local ptr @execTuplesMatchPrepare(ptr noundef %0, i32 noundef %1, ptr noundef %2, ptr noundef readonly captures(none) %3, ptr noundef %4, ptr noundef %5) local_unnamed_addr #0 {
  %7 = icmp eq i32 %1, 0
  br i1 %7, label %18, label %8

8:                                                ; preds = %6
  %9 = sext i32 %1 to i64
  %10 = shl nsw i64 %9, 2
  %11 = tail call ptr @palloc(i64 noundef %10) #15
  %12 = icmp sgt i32 %1, 0
  br i1 %12, label %.lr.ph.preheader, label %._crit_edge

.lr.ph.preheader:                                 ; preds = %8
  %wide.trip.count = zext nneg i32 %1 to i64
  br label %.lr.ph

.lr.ph:                                           ; preds = %.lr.ph.preheader, %.lr.ph
  %indvars.iv = phi i64 [ 0, %.lr.ph.preheader ], [ %indvars.iv.next, %.lr.ph ]
  %13 = getelementptr inbounds nuw i32, ptr %3, i64 %indvars.iv
  %14 = load i32, ptr %13, align 4
  %15 = tail call i32 @get_opcode(i32 noundef %14) #15
  %16 = getelementptr inbounds nuw i32, ptr %11, i64 %indvars.iv
  store i32 %15, ptr %16, align 4
  %indvars.iv.next = add nuw nsw i64 %indvars.iv, 1
  %exitcond.not = icmp eq i64 %indvars.iv.next, %wide.trip.count
  br i1 %exitcond.not, label %._crit_edge, label %.lr.ph, !llvm.loop !13

._crit_edge:                                      ; preds = %.lr.ph, %8
  %17 = tail call ptr @ExecBuildGroupingEqual(ptr noundef %0, ptr noundef %0, ptr noundef null, ptr noundef null, i32 noundef %1, ptr noundef %2, ptr noundef %11, ptr noundef %4, ptr noundef %5) #15
  br label %18

18:                                               ; preds = %6, %._crit_edge
  %.0 = phi ptr [ %17, %._crit_edge ], [ null, %6 ]
  ret ptr %.0
}